target datalayout = "e-m:e-p270:32:32-p271:32:32-p272:64:64-i64:64-i128:128-f80:128-n8:16:32:64-S128"
target triple = "x86_64-pc-linux-gnu"

@.str.6 = private unnamed_addr constant [17 x i8] c"EGG_HEADER_MAGIC\00", align 1
@.str.7 = private unnamed_addr constant [18 x i8] c"FILE_HEADER_MAGIC\00", align 1
@.str.8 = private unnamed_addr constant [19 x i8] c"BLOCK_HEADER_MAGIC\00", align 1
@.str.9 = private unnamed_addr constant [21 x i8] c"ENCRYPT_HEADER_MAGIC\00", align 1
@.str.10 = private unnamed_addr constant [19 x i8] c"WINDOWS_INFO_MAGIC\00", align 1
@.str.11 = private unnamed_addr constant [17 x i8] c"POSIX_INFO_MAGIC\00", align 1
@.str.12 = private unnamed_addr constant [19 x i8] c"DUMMY_HEADER_MAGIC\00", align 1
@.str.13 = private unnamed_addr constant [22 x i8] c"FILENAME_HEADER_MAGIC\00", align 1
@.str.14 = private unnamed_addr constant [21 x i8] c"COMMENT_HEADER_MAGIC\00", align 1
@.str.15 = private unnamed_addr constant [24 x i8] c"SPLIT_COMPRESSION_MAGIC\00", align 1
@.str.16 = private unnamed_addr constant [24 x i8] c"SOLID_COMPRESSION_MAGIC\00", align 1
@.str.17 = private unnamed_addr constant [23 x i8] c"<unknown header magic>\00", align 1

; Function Attrs: nounwind uwtable
define ptr @getMagicHeaderName(i32 noundef %0) #0 {
  %2 = alloca i32, align 4
  %3 = alloca ptr, align 8
  store i32 %0, ptr %2, align 4
  store ptr null, ptr %3, align 8
  %4 = load i32, ptr %2, align 4
  switch i32 %4, label %16 [
    i32 1095190341, label %5
    i32 176525539, label %6
    i32 45419539, label %7
    i32 147932943, label %8
    i32 747017483, label %9
    i32 518595301, label %10
    i32 122041095, label %11
    i32 176525740, label %12
    i32 80098930, label %13
    i32 620077666, label %14
    i32 619028576, label %15
  ]

5:                                                ; preds = %1
  store ptr @.str.6, ptr %3, align 8
  br label %17

6:                                                ; preds = %1
  store ptr @.str.7, ptr %3, align 8
  br label %17

7:                                                ; preds = %1
  store ptr @.str.8, ptr %3, align 8
  br label %17

8:                                                ; preds = %1
  store ptr @.str.9, ptr %3, align 8
  br label %17

9:                                                ; preds = %1
  store ptr @.str.10, ptr %3, align 8
  br label %17

10:                                               ; preds = %1
  store ptr @.str.11, ptr %3, align 8
  br label %17

11:                                               ; preds = %1
  store ptr @.str.12, ptr %3, align 8
  br label %17

12:                                               ; preds = %1
  store ptr @.str.13, ptr %3, align 8
  br label %17

13:                                               ; preds = %1
  store ptr @.str.14, ptr %3, align 8
  br label %17

14:                                               ; preds = %1
  store ptr @.str.15, ptr %3, align 8
  br label %17

15:                                               ; preds = %1
  store ptr @.str.16, ptr %3, align 8
  br label %17

16:                                               ; preds = %1
  store ptr @.str.17, ptr %3, align 8
  br label %17

17:                                               ; preds = %16, %15, %14, %13, %12, %11, %10, %9, %8, %7, %6, %5
  %18 = load ptr, ptr %3, align 8
  ret ptr %18
}