; Function Attrs: mustprogress nofree norecurse nosync nounwind willreturn memory(none) uwtable
define noundef nonnull ptr @getMagicHeaderName(i32 noundef %0) local_unnamed_addr #0 {
  switch i32 %0, label %12 [
    i32 1095190341, label %13
    i32 176525539, label %2
    i32 45419539, label %3
    i32 147932943, label %4
    i32 747017483, label %5
    i32 518595301, label %6
    i32 122041095, label %7
    i32 176525740, label %8
    i32 80098930, label %9
    i32 620077666, label %10
    i32 619028576, label %11
  ]

2:                                                ; preds = %1
  br label %13

3:                                                ; preds = %1
  br label %13

4:                                                ; preds = %1
  br label %13

5:                                                ; preds = %1
  br label %13

6:                                                ; preds = %1
  br label %13

7:                                                ; preds = %1
  br label %13

8:                                                ; preds = %1
  br label %13

9:                                                ; preds = %1
  br label %13

10:                                               ; preds = %1
  br label %13

11:                                               ; preds = %1
  br label %13

12:                                               ; preds = %1
  br label %13

13:                                               ; preds = %1, %12, %11, %10, %9, %8, %7, %6, %5, %4, %3, %2
  %.0 = phi ptr [ @.str.17, %12 ], [ @.str.16, %11 ], [ @.str.15, %10 ], [ @.str.14, %9 ], [ @.str.13, %8 ], [ @.str.12, %7 ], [ @.str.11, %6 ], [ @.str.10, %5 ], [ @.str.9, %4 ], [ @.str.8, %3 ], [ @.str.7, %2 ], [ @.str.6, %1 ]
  ret ptr %.0
}